target datalayout = "e-m:e-p270:32:32-p271:32:32-p272:64:64-i64:64-i128:128-f80:128-n8:16:32:64-S128"
target triple = "x86_64-pc-linux-gnu"

%struct._zend_phpdbg_globals = type { [11 x %struct._zend_array], %struct._zend_array, %struct._zend_array, ptr, ptr, %struct.phpdbg_frame_t, i32, ptr, %struct.phpdbg_lexer_data, ptr, %struct.sigaction, i32, i64, %struct.phpdbg_btree, %struct.phpdbg_btree, %struct._zend_array, %struct._zend_array, %struct._zend_array, %struct._zend_array, ptr, ptr, i8, ptr, ptr, ptr, i64, ptr, %struct._zval_struct, i32, i32, i8, i8, ptr, ptr, ptr, %struct._zend_array, ptr, ptr, ptr, [3 x %struct.anon.8], ptr, %struct.anon.9, i64, [2 x ptr], [3 x ptr], ptr, i8, ptr, ptr, [500 x i8], i32, %struct.phpdbg_signal_safe_mem, ptr, i64, ptr, i64 }
%struct.phpdbg_frame_t = type { i32, ptr, ptr }
%struct.phpdbg_lexer_data = type { i32, ptr, ptr, ptr, ptr, i32 }
%struct.sigaction = type { %union.anon.2, %struct.__sigset_t, i32, ptr }
%union.anon.2 = type { ptr }
%struct.__sigset_t = type { [16 x i64] }
%struct.phpdbg_btree = type { i64, i64, i8, ptr }
%struct._zval_struct = type { %union._zend_value, %union.anon.4, %union.anon.7 }
%union._zend_value = type { i64 }
%union.anon.4 = type { i32 }
%union.anon.7 = type { i32 }
%struct._zend_array = type { %struct._zend_refcounted_h, %union.anon.0, i32, %union.anon.1, i32, i32, i32, i32, i64, ptr }
%struct._zend_refcounted_h = type { i32, %union.anon }
%union.anon = type { i32 }
%union.anon.0 = type { i32 }
%union.anon.1 = type { ptr }
%struct.anon.8 = type { i32 }
%struct.anon.9 = type { i8, i32, i32, ptr, i32 }
%struct.phpdbg_signal_safe_mem = type { ptr, i8, ptr, ptr }
%struct._zend_executor_globals = type { %struct._zval_struct, %struct._zval_struct, [32 x ptr], ptr, ptr, %struct._zend_array, %struct._zend_array, ptr, i32, i32, ptr, ptr, ptr, ptr, ptr, ptr, i64, ptr, ptr, i32, i32, i64, i32, i32, i32, i8, i8, %struct.zend_atomic_bool_s, %struct.zend_atomic_bool_s, ptr, i64, ptr, ptr, %struct._zend_array, %struct._zend_array, i32, i8, %struct._zval_struct, %struct._zval_struct, %struct._zend_stack, %struct._zend_stack, %struct._zend_stack, ptr, i32, i32, i64, ptr, ptr, ptr, %struct._zend_objects_store, ptr, ptr, ptr, [3 x %struct._zend_op], ptr, i8, i8, i64, i32, i32, ptr, [16 x %struct._HashTableIterator], ptr, %union._zend_function, %struct._zend_op, %struct._zend_array, i64, %struct.zend_get_gc_buffer, ptr, ptr, ptr, i64, i8, i32, ptr, ptr, i64, %struct._zend_call_stack, i64, i64, [6 x ptr] }
%struct.zend_atomic_bool_s = type { i8 }
%struct._zend_stack = type { i32, i32, i32, ptr }
%struct._zend_objects_store = type { ptr, i32, i32, i32 }
%struct._HashTableIterator = type { ptr, i32, i32 }
%union._zend_function = type { %struct._zend_op_array }
%struct._zend_op_array = type { i8, [3 x i8], i32, ptr, ptr, ptr, i32, i32, ptr, ptr, ptr, ptr, i32, i32, i32, i32, ptr, ptr, ptr, ptr, ptr, i32, i32, ptr, ptr, ptr, i32, i32, i32, i32, ptr, ptr, [6 x ptr] }
%struct._zend_op = type { ptr, %union._znode_op, %union._znode_op, %union._znode_op, i32, i32, i8, i8, i8, i8 }
%union._znode_op = type { i32 }
%struct.zend_get_gc_buffer = type { ptr, ptr, ptr }
%struct._zend_call_stack = type { ptr, i64 }
%struct._phpdbg_param = type { i32, i64, i64, %struct.anon.10, %struct.anon.11, ptr, i64, ptr, ptr }
%struct.anon.10 = type { ptr, i64 }
%struct.anon.11 = type { ptr, ptr }
%struct.__jmp_buf_tag = type { [8 x i64], i32, %struct.__sigset_t }
%struct.phpdbg_init_state = type { i32, i8, ptr, i64, ptr }

@phpdbg_globals = external global %struct._zend_phpdbg_globals, align 8
@.str.78 = private unnamed_addr constant [108 x i8] c"/home/dtcxzyw/WorkSpace/Projects/compilers/llvm-opt-benchmark/bench/php/php-src/sapi/phpdbg/phpdbg_prompt.c\00", align 1
@executor_globals = external global %struct._zend_executor_globals, align 8
@.str.181 = private unnamed_addr constant [3 x i8] c"<:\00", align 1
@.str.182 = private unnamed_addr constant [3 x i8] c":>\00", align 1
@.str.183 = private unnamed_addr constant [16 x i8] c"phpdbginit code\00", align 1
@.str.184 = private unnamed_addr constant [39 x i8] c"Unrecognized command in %s:%d: %s, %s!\00", align 1
@.str.185 = private unnamed_addr constant [41 x i8] c"Unrecognized command on line %d: %s, %s!\00", align 1

; Function Attrs: nounwind uwtable
define internal void @phpdbg_line_init(ptr noundef %0, ptr noundef %1) #0 {
  %3 = alloca ptr, align 8
  %4 = alloca ptr, align 8
  %5 = alloca i64, align 8
  %6 = alloca ptr, align 8
  %7 = alloca [1 x %struct.__jmp_buf_tag], align 16
  %8 = alloca ptr, align 8
  %9 = alloca %struct._phpdbg_param, align 8
  store ptr %0, ptr %3, align 8
  store ptr %1, ptr %4, align 8
  %10 = load ptr, ptr %3, align 8
  %11 = call i64 @strlen(ptr noundef %10) #16
  store i64 %11, ptr %5, align 8
  %12 = load ptr, ptr %4, align 8
  %13 = getelementptr inbounds %struct.phpdbg_init_state, ptr %12, i32 0, i32 0
  %14 = load i32, ptr %13, align 8
  %15 = add nsw i32 %14, 1
  store i32 %15, ptr %13, align 8
  br label %16

16:                                               ; preds = %36, %2
  %17 = load i64, ptr %5, align 8
  %18 = icmp ugt i64 %17, 0
  br i1 %18, label %19, label %34

19:                                               ; preds = %16
  %20 = call ptr @__ctype_b_loc() #21
  %21 = load ptr, ptr %20, align 8
  %22 = load ptr, ptr %3, align 8
  %23 = load i64, ptr %5, align 8
  %24 = sub i64 %23, 1
  %25 = getelementptr inbounds i8, ptr %22, i64 %24
  %26 = load i8, ptr %25, align 1
  %27 = sext i8 %26 to i32
  %28 = sext i32 %27 to i64
  %29 = getelementptr inbounds i16, ptr %21, i64 %28
  %30 = load i16, ptr %29, align 2
  %31 = zext i16 %30 to i32
  %32 = and i32 %31, 8192
  %33 = icmp ne i32 %32, 0
  br label %34

34:                                               ; preds = %19, %16
  %35 = phi i1 [ false, %16 ], [ %33, %19 ]
  br i1 %35, label %36, label %39

36:                                               ; preds = %34
  %37 = load i64, ptr %5, align 8
  %38 = add i64 %37, -1
  store i64 %38, ptr %5, align 8
  br label %16

39:                                               ; preds = %34
  %40 = load ptr, ptr %3, align 8
  %41 = load i64, ptr %5, align 8
  %42 = getelementptr inbounds i8, ptr %40, i64 %41
  store i8 0, ptr %42, align 1
  %43 = load ptr, ptr %3, align 8
  %44 = load i8, ptr %43, align 1
  %45 = sext i8 %44 to i32
  %46 = icmp ne i32 %45, 0
  br i1 %46, label %47, label %214

47:                                               ; preds = %39
  %48 = load i64, ptr %5, align 8
  %49 = icmp ugt i64 %48, 0
  br i1 %49, label %50, label %214

50:                                               ; preds = %47
  %51 = load ptr, ptr %3, align 8
  %52 = getelementptr inbounds i8, ptr %51, i64 0
  %53 = load i8, ptr %52, align 1
  %54 = sext i8 %53 to i32
  %55 = icmp ne i32 %54, 35
  br i1 %55, label %56, label %214

56:                                               ; preds = %50
  %57 = load i64, ptr %5, align 8
  %58 = icmp eq i64 %57, 2
  br i1 %58, label %59, label %94

59:                                               ; preds = %56
  %60 = load ptr, ptr %3, align 8
  %61 = call i32 @memcmp(ptr noundef %60, ptr noundef @.str.181, i64 noundef 2) #16
  %62 = icmp eq i32 %61, 0
  br i1 %62, label %63, label %66

63:                                               ; preds = %59
  %64 = load ptr, ptr %4, align 8
  %65 = getelementptr inbounds %struct.phpdbg_init_state, ptr %64, i32 0, i32 1
  store i8 1, ptr %65, align 4
  br label %214

66:                                               ; preds = %59
  %67 = load ptr, ptr %3, align 8
  %68 = call i32 @memcmp(ptr noundef %67, ptr noundef @.str.182, i64 noundef 2) #16
  %69 = icmp eq i32 %68, 0
  br i1 %69, label %70, label %92

70:                                               ; preds = %66
  %71 = load ptr, ptr %4, align 8
  %72 = getelementptr inbounds %struct.phpdbg_init_state, ptr %71, i32 0, i32 1
  store i8 0, ptr %72, align 4
  %73 = load ptr, ptr %4, align 8
  %74 = getelementptr inbounds %struct.phpdbg_init_state, ptr %73, i32 0, i32 2
  %75 = load ptr, ptr %74, align 8
  %76 = load ptr, ptr %4, align 8
  %77 = getelementptr inbounds %struct.phpdbg_init_state, ptr %76, i32 0, i32 3
  %78 = load i64, ptr %77, align 8
  %79 = getelementptr inbounds i8, ptr %75, i64 %78
  store i8 0, ptr %79, align 1
  %80 = load ptr, ptr %4, align 8
  %81 = getelementptr inbounds %struct.phpdbg_init_state, ptr %80, i32 0, i32 2
  %82 = load ptr, ptr %81, align 8
  %83 = load ptr, ptr %4, align 8
  %84 = getelementptr inbounds %struct.phpdbg_init_state, ptr %83, i32 0, i32 3
  %85 = load i64, ptr %84, align 8
  %86 = call i32 @zend_eval_stringl(ptr noundef %82, i64 noundef %85, ptr noundef null, ptr noundef @.str.183)
  %87 = load ptr, ptr %4, align 8
  %88 = getelementptr inbounds %struct.phpdbg_init_state, ptr %87, i32 0, i32 2
  %89 = load ptr, ptr %88, align 8
  call void @free(ptr noundef %89) #15
  %90 = load ptr, ptr %4, align 8
  %91 = getelementptr inbounds %struct.phpdbg_init_state, ptr %90, i32 0, i32 2
  store ptr null, ptr %91, align 8
  br label %214

92:                                               ; preds = %66
  br label %93

93:                                               ; preds = %92
  br label %94

94:                                               ; preds = %93, %56
  %95 = load ptr, ptr %4, align 8
  %96 = getelementptr inbounds %struct.phpdbg_init_state, ptr %95, i32 0, i32 1
  %97 = load i8, ptr %96, align 4
  %98 = trunc i8 %97 to i1
  br i1 %98, label %99, label %144

99:                                               ; preds = %94
  %100 = load ptr, ptr %4, align 8
  %101 = getelementptr inbounds %struct.phpdbg_init_state, ptr %100, i32 0, i32 2
  %102 = load ptr, ptr %101, align 8
  %103 = icmp eq ptr %102, null
  br i1 %103, label %104, label %110

104:                                              ; preds = %99
  %105 = load i64, ptr %5, align 8
  %106 = add i64 %105, 1
  %107 = call noalias ptr @malloc(i64 noundef %106) #22
  %108 = load ptr, ptr %4, align 8
  %109 = getelementptr inbounds %struct.phpdbg_init_state, ptr %108, i32 0, i32 2
  store ptr %107, ptr %109, align 8
  br label %123

110:                                              ; preds = %99
  %111 = load ptr, ptr %4, align 8
  %112 = getelementptr inbounds %struct.phpdbg_init_state, ptr %111, i32 0, i32 2
  %113 = load ptr, ptr %112, align 8
  %114 = load ptr, ptr %4, align 8
  %115 = getelementptr inbounds %struct.phpdbg_init_state, ptr %114, i32 0, i32 3
  %116 = load i64, ptr %115, align 8
  %117 = load i64, ptr %5, align 8
  %118 = add i64 %116, %117
  %119 = add i64 %118, 1
  %120 = call ptr @realloc(ptr noundef %113, i64 noundef %119) #23
  %121 = load ptr, ptr %4, align 8
  %122 = getelementptr inbounds %struct.phpdbg_init_state, ptr %121, i32 0, i32 2
  store ptr %120, ptr %122, align 8
  br label %123

123:                                              ; preds = %110, %104
  %124 = load ptr, ptr %4, align 8
  %125 = getelementptr inbounds %struct.phpdbg_init_state, ptr %124, i32 0, i32 2
  %126 = load ptr, ptr %125, align 8
  %127 = icmp ne ptr %126, null
  br i1 %127, label %128, label %143

128:                                              ; preds = %123
  %129 = load ptr, ptr %4, align 8
  %130 = getelementptr inbounds %struct.phpdbg_init_state, ptr %129, i32 0, i32 2
  %131 = load ptr, ptr %130, align 8
  %132 = load ptr, ptr %4, align 8
  %133 = getelementptr inbounds %struct.phpdbg_init_state, ptr %132, i32 0, i32 3
  %134 = load i64, ptr %133, align 8
  %135 = getelementptr inbounds i8, ptr %131, i64 %134
  %136 = load ptr, ptr %3, align 8
  %137 = load i64, ptr %5, align 8
  call void @llvm.memcpy.p0.p0.i64(ptr align 1 %135, ptr align 1 %136, i64 %137, i1 false)
  %138 = load i64, ptr %5, align 8
  %139 = load ptr, ptr %4, align 8
  %140 = getelementptr inbounds %struct.phpdbg_init_state, ptr %139, i32 0, i32 3
  %141 = load i64, ptr %140, align 8
  %142 = add i64 %141, %138
  store i64 %142, ptr %140, align 8
  br label %143

143:                                              ; preds = %128, %123
  br label %214

144:                                              ; preds = %94
  %145 = load ptr, ptr getelementptr inbounds (%struct._zend_executor_globals, ptr @executor_globals, i32 0, i32 7), align 8
  store ptr %145, ptr %6, align 8
  store ptr %7, ptr getelementptr inbounds (%struct._zend_executor_globals, ptr @executor_globals, i32 0, i32 7), align 8
  %146 = getelementptr inbounds [1 x %struct.__jmp_buf_tag], ptr %7, i64 0, i64 0
  %147 = call i32 @__sigsetjmp(ptr noundef %146, i32 noundef 0) #20
  %148 = icmp eq i32 %147, 0
  br i1 %148, label %149, label %203

149:                                              ; preds = %144
  %150 = load ptr, ptr %3, align 8
  %151 = call ptr @phpdbg_read_input(ptr noundef %150)
  store ptr %151, ptr %8, align 8
  br label %152

152:                                              ; preds = %149
  %153 = getelementptr inbounds %struct._phpdbg_param, ptr %9, i32 0, i32 0
  store i32 9, ptr %153, align 8
  %154 = getelementptr inbounds %struct._phpdbg_param, ptr %9, i32 0, i32 2
  store i64 0, ptr %154, align 8
  %155 = getelementptr inbounds %struct._phpdbg_param, ptr %9, i32 0, i32 1
  store i64 0, ptr %155, align 8
  %156 = getelementptr inbounds %struct._phpdbg_param, ptr %9, i32 0, i32 3
  %157 = getelementptr inbounds %struct.anon.10, ptr %156, i32 0, i32 0
  store ptr null, ptr %157, align 8
  %158 = getelementptr inbounds %struct._phpdbg_param, ptr %9, i32 0, i32 3
  %159 = getelementptr inbounds %struct.anon.10, ptr %158, i32 0, i32 1
  store i64 0, ptr %159, align 8
  %160 = getelementptr inbounds %struct._phpdbg_param, ptr %9, i32 0, i32 4
  %161 = getelementptr inbounds %struct.anon.11, ptr %160, i32 0, i32 0
  store ptr null, ptr %161, align 8
  %162 = getelementptr inbounds %struct._phpdbg_param, ptr %9, i32 0, i32 4
  %163 = getelementptr inbounds %struct.anon.11, ptr %162, i32 0, i32 1
  store ptr null, ptr %163, align 8
  %164 = getelementptr inbounds %struct._phpdbg_param, ptr %9, i32 0, i32 5
  store ptr null, ptr %164, align 8
  %165 = getelementptr inbounds %struct._phpdbg_param, ptr %9, i32 0, i32 6
  store i64 0, ptr %165, align 8
  %166 = getelementptr inbounds %struct._phpdbg_param, ptr %9, i32 0, i32 7
  store ptr null, ptr %166, align 8
  %167 = getelementptr inbounds %struct._phpdbg_param, ptr %9, i32 0, i32 8
  store ptr null, ptr %167, align 8
  br label %168

168:                                              ; preds = %152
  call void @phpdbg_activate_err_buf(i1 noundef zeroext true)
  %169 = load ptr, ptr %8, align 8
  %170 = call i32 @phpdbg_do_parse(ptr noundef %9, ptr noundef %169)
  %171 = icmp sle i32 %170, 0
  br i1 %171, label %172, label %202

172:                                              ; preds = %168
  %173 = call i32 @phpdbg_stack_execute(ptr noundef %9, i1 noundef zeroext true)
  switch i32 %173, label %201 [
    i32 -1, label %174
  ]

174:                                              ; preds = %172
  call void @phpdbg_activate_err_buf(i1 noundef zeroext false)
  %175 = call i32 @phpdbg_call_register(ptr noundef %9)
  %176 = icmp eq i32 %175, -1
  br i1 %176, label %177, label %200

177:                                              ; preds = %174
  %178 = load ptr, ptr %4, align 8
  %179 = getelementptr inbounds %struct.phpdbg_init_state, ptr %178, i32 0, i32 4
  %180 = load ptr, ptr %179, align 8
  %181 = icmp ne ptr %180, null
  br i1 %181, label %182, label %192

182:                                              ; preds = %177
  %183 = load ptr, ptr %4, align 8
  %184 = getelementptr inbounds %struct.phpdbg_init_state, ptr %183, i32 0, i32 4
  %185 = load ptr, ptr %184, align 8
  %186 = load ptr, ptr %4, align 8
  %187 = getelementptr inbounds %struct.phpdbg_init_state, ptr %186, i32 0, i32 0
  %188 = load i32, ptr %187, align 8
  %189 = load ptr, ptr %8, align 8
  %190 = load ptr, ptr getelementptr inbounds (%struct._zend_phpdbg_globals, ptr @phpdbg_globals, i32 0, i32 41, i32 3), align 8
  %191 = call i32 (ptr, ...) @phpdbg_output_err_buf(ptr noundef @.str.184, ptr noundef %185, i32 noundef %188, ptr noundef %189, ptr noundef %190)
  br label %199

192:                                              ; preds = %177
  %193 = load ptr, ptr %4, align 8
  %194 = getelementptr inbounds %struct.phpdbg_init_state, ptr %193, i32 0, i32 0
  %195 = load i32, ptr %194, align 8
  %196 = load ptr, ptr %8, align 8
  %197 = load ptr, ptr getelementptr inbounds (%struct._zend_phpdbg_globals, ptr @phpdbg_globals, i32 0, i32 41, i32 3), align 8
  %198 = call i32 (ptr, ...) @phpdbg_output_err_buf(ptr noundef @.str.185, i32 noundef %195, ptr noundef %196, ptr noundef %197)
  br label %199

199:                                              ; preds = %192, %182
  br label %200

200:                                              ; preds = %199, %174
  br label %201

201:                                              ; preds = %200, %172
  br label %202

202:                                              ; preds = %201, %168
  call void @phpdbg_activate_err_buf(i1 noundef zeroext false)
  call void @phpdbg_free_err_buf()
  call void @phpdbg_stack_free(ptr noundef %9)
  call void @phpdbg_destroy_input(ptr noundef %8)
  br label %212

203:                                              ; preds = %144
  %204 = load ptr, ptr %6, align 8
  store ptr %204, ptr getelementptr inbounds (%struct._zend_executor_globals, ptr @executor_globals, i32 0, i32 7), align 8
  %205 = load i64, ptr getelementptr inbounds (%struct._zend_phpdbg_globals, ptr @phpdbg_globals, i32 0, i32 53), align 8
  %206 = and i64 %205, -786433
  store i64 %206, ptr getelementptr inbounds (%struct._zend_phpdbg_globals, ptr @phpdbg_globals, i32 0, i32 53), align 8
  %207 = load i64, ptr getelementptr inbounds (%struct._zend_phpdbg_globals, ptr @phpdbg_globals, i32 0, i32 53), align 8
  %208 = and i64 %207, 65536
  %209 = icmp ne i64 %208, 0
  br i1 %209, label %210, label %211

210:                                              ; preds = %203
  call void @_zend_bailout(ptr noundef @.str.78, i32 noundef 284) #17
  unreachable

211:                                              ; preds = %203
  br label %212

212:                                              ; preds = %211, %202
  %213 = load ptr, ptr %6, align 8
  store ptr %213, ptr getelementptr inbounds (%struct._zend_executor_globals, ptr @executor_globals, i32 0, i32 7), align 8
  br label %214

214:                                              ; preds = %212, %143, %70, %63, %50, %47, %39
  ret void
}