; Function Attrs: nounwind uwtable
define internal fastcc void @phpdbg_line_init(ptr noundef %0, ptr nocapture noundef %1) unnamed_addr #0 {
  %3 = alloca [1 x %struct.__jmp_buf_tag], align 16
  %4 = alloca ptr, align 8
  %5 = alloca %struct._phpdbg_param, align 8
  %6 = call i64 @strlen(ptr noundef nonnull dereferenceable(1) %0) #25
  %7 = load i32, ptr %1, align 8
  %8 = add nsw i32 %7, 1
  store i32 %8, ptr %1, align 8
  %invariant.gep = getelementptr i8, ptr %0, i64 -1
  %9 = icmp eq i64 %6, 0
  br i1 %9, label %.critedge.thread, label %.lr.ph

.lr.ph:                                           ; preds = %2
  %10 = call ptr @__ctype_b_loc() #30
  %11 = load ptr, ptr %10, align 8
  br label %12

12:                                               ; preds = %.lr.ph, %18
  %.059 = phi i64 [ %6, %.lr.ph ], [ %19, %18 ]
  %gep = getelementptr i8, ptr %invariant.gep, i64 %.059
  %13 = load i8, ptr %gep, align 1
  %14 = sext i8 %13 to i64
  %15 = getelementptr inbounds i16, ptr %11, i64 %14
  %16 = load i16, ptr %15, align 2
  %17 = and i16 %16, 8192
  %.not.not = icmp eq i16 %17, 0
  br i1 %.not.not, label %switch.early.test, label %18

18:                                               ; preds = %12
  %19 = add i64 %.059, -1
  %20 = icmp eq i64 %19, 0
  br i1 %20, label %.critedge.thread, label %12

.critedge.thread:                                 ; preds = %18, %2
  store i8 0, ptr %0, align 1
  br label %96

switch.early.test:                                ; preds = %12
  %21 = getelementptr inbounds i8, ptr %0, i64 %.059
  store i8 0, ptr %21, align 1
  %22 = load i8, ptr %0, align 1
  switch i8 %22, label %23 [
    i8 35, label %96
    i8 0, label %96
  ]

23:                                               ; preds = %switch.early.test
  %24 = icmp eq i64 %.059, 2
  br i1 %24, label %25, label %42

25:                                               ; preds = %23
  %bcmp = call i32 @bcmp(ptr noundef nonnull dereferenceable(2) %0, ptr noundef nonnull dereferenceable(2) @.str.181, i64 2)
  %26 = icmp eq i32 %bcmp, 0
  br i1 %26, label %27, label %29

27:                                               ; preds = %25
  %28 = getelementptr inbounds i8, ptr %1, i64 4
  store i8 1, ptr %28, align 4
  br label %96

29:                                               ; preds = %25
  %bcmp49 = call i32 @bcmp(ptr noundef nonnull dereferenceable(2) %0, ptr noundef nonnull dereferenceable(2) @.str.182, i64 2)
  %30 = icmp eq i32 %bcmp49, 0
  br i1 %30, label %31, label %42

31:                                               ; preds = %29
  %32 = getelementptr inbounds i8, ptr %1, i64 4
  store i8 0, ptr %32, align 4
  %33 = getelementptr inbounds i8, ptr %1, i64 8
  %34 = load ptr, ptr %33, align 8
  %35 = getelementptr inbounds i8, ptr %1, i64 16
  %36 = load i64, ptr %35, align 8
  %37 = getelementptr inbounds i8, ptr %34, i64 %36
  store i8 0, ptr %37, align 1
  %38 = load ptr, ptr %33, align 8
  %39 = load i64, ptr %35, align 8
  %40 = call i32 @zend_eval_stringl(ptr noundef %38, i64 noundef %39, ptr noundef null, ptr noundef nonnull @.str.183) #24
  %41 = load ptr, ptr %33, align 8
  call void @free(ptr noundef %41) #24
  store ptr null, ptr %33, align 8
  br label %96

42:                                               ; preds = %29, %23
  %43 = getelementptr inbounds i8, ptr %1, i64 4
  %44 = load i8, ptr %43, align 4
  %45 = and i8 %44, 1
  %.not50 = icmp eq i8 %45, 0
  br i1 %.not50, label %65, label %46

46:                                               ; preds = %42
  %47 = getelementptr inbounds i8, ptr %1, i64 8
  %48 = load ptr, ptr %47, align 8
  %49 = icmp eq ptr %48, null
  br i1 %49, label %50, label %53

50:                                               ; preds = %46
  %51 = add i64 %.059, 1
  %52 = call noalias ptr @malloc(i64 noundef %51) #27
  br label %59

53:                                               ; preds = %46
  %54 = getelementptr inbounds i8, ptr %1, i64 16
  %55 = load i64, ptr %54, align 8
  %56 = add i64 %.059, 1
  %57 = add i64 %56, %55
  %58 = call ptr @realloc(ptr noundef nonnull %48, i64 noundef %57) #28
  br label %59

59:                                               ; preds = %53, %50
  %storemerge = phi ptr [ %58, %53 ], [ %52, %50 ]
  store ptr %storemerge, ptr %47, align 8
  %.not53 = icmp eq ptr %storemerge, null
  br i1 %.not53, label %96, label %60

60:                                               ; preds = %59
  %61 = getelementptr inbounds i8, ptr %1, i64 16
  %62 = load i64, ptr %61, align 8
  %63 = getelementptr inbounds i8, ptr %storemerge, i64 %62
  call void @llvm.memcpy.p0.p0.i64(ptr nonnull align 1 %63, ptr nonnull align 1 %0, i64 %.059, i1 false)
  %64 = add i64 %62, %.059
  store i64 %64, ptr %61, align 8
  br label %96

65:                                               ; preds = %42
  %66 = load ptr, ptr getelementptr inbounds (%struct._zend_executor_globals, ptr @executor_globals, i64 0, i32 7), align 8
  store ptr %3, ptr getelementptr inbounds (%struct._zend_executor_globals, ptr @executor_globals, i64 0, i32 7), align 8
  %67 = call i32 @__sigsetjmp(ptr noundef nonnull %3, i32 noundef 0) #29
  %68 = icmp eq i32 %67, 0
  br i1 %68, label %69, label %90

69:                                               ; preds = %65
  %70 = call ptr @phpdbg_read_input(ptr noundef nonnull %0) #24
  store ptr %70, ptr %4, align 8
  store i32 9, ptr %5, align 8
  %71 = getelementptr inbounds i8, ptr %5, i64 8
  %72 = getelementptr inbounds i8, ptr %5, i64 72
  call void @llvm.memset.p0.i64(ptr noundef nonnull align 8 dereferenceable(80) %71, i8 0, i64 80, i1 false)
  call void @phpdbg_activate_err_buf(i1 noundef zeroext true) #24
  %73 = call i32 @phpdbg_do_parse(ptr noundef nonnull %5, ptr noundef %70) #24
  %74 = icmp slt i32 %73, 1
  br i1 %74, label %75, label %89

75:                                               ; preds = %69
  %76 = call i32 @phpdbg_stack_execute(ptr noundef nonnull %5, i1 noundef zeroext true) #24
  %cond = icmp eq i32 %76, -1
  br i1 %cond, label %77, label %89

77:                                               ; preds = %75
  call void @phpdbg_activate_err_buf(i1 noundef zeroext false) #24
  %.val = load i32, ptr %5, align 8
  %.val55 = load ptr, ptr %72, align 8
  %78 = call fastcc i32 @phpdbg_call_register(i32 %.val, ptr %.val55)
  %79 = icmp eq i32 %78, -1
  br i1 %79, label %80, label %89

80:                                               ; preds = %77
  %81 = getelementptr inbounds i8, ptr %1, i64 24
  %82 = load ptr, ptr %81, align 8
  %.not52 = icmp eq ptr %82, null
  %83 = load i32, ptr %1, align 8
  %84 = load ptr, ptr getelementptr inbounds (%struct._zend_phpdbg_globals, ptr @phpdbg_globals, i64 0, i32 41, i32 3), align 8
  br i1 %.not52, label %87, label %85

85:                                               ; preds = %80
  %86 = call i32 (ptr, ...) @phpdbg_output_err_buf(ptr noundef nonnull @.str.184, ptr noundef nonnull %82, i32 noundef %83, ptr noundef %70, ptr noundef %84) #24
  br label %89

87:                                               ; preds = %80
  %88 = call i32 (ptr, ...) @phpdbg_output_err_buf(ptr noundef nonnull @.str.185, i32 noundef %83, ptr noundef %70, ptr noundef %84) #24
  br label %89

89:                                               ; preds = %75, %85, %87, %77, %69
  call void @phpdbg_activate_err_buf(i1 noundef zeroext false) #24
  call void @phpdbg_free_err_buf() #24
  call void @phpdbg_stack_free(ptr noundef nonnull %5) #24
  call void @phpdbg_destroy_input(ptr noundef nonnull %4) #24
  br label %95

90:                                               ; preds = %65
  store ptr %66, ptr getelementptr inbounds (%struct._zend_executor_globals, ptr @executor_globals, i64 0, i32 7), align 8
  %91 = load i64, ptr getelementptr inbounds (%struct._zend_phpdbg_globals, ptr @phpdbg_globals, i64 0, i32 53), align 8
  %92 = and i64 %91, -786433
  store i64 %92, ptr getelementptr inbounds (%struct._zend_phpdbg_globals, ptr @phpdbg_globals, i64 0, i32 53), align 8
  %93 = and i64 %91, 65536
  %.not51 = icmp eq i64 %93, 0
  br i1 %.not51, label %95, label %94

94:                                               ; preds = %90
  call void @_zend_bailout(ptr noundef nonnull @.str.78, i32 noundef 284) #26
  unreachable

95:                                               ; preds = %90, %89
  store ptr %66, ptr getelementptr inbounds (%struct._zend_executor_globals, ptr @executor_globals, i64 0, i32 7), align 8
  br label %96

96:                                               ; preds = %.critedge.thread, %switch.early.test, %switch.early.test, %59, %60, %95, %31, %27
  ret void
}